; Function Attrs: mustprogress nounwind uwtable
define hidden void @_ZNK5clang7targets21WebAssemblyTargetInfo16fillValidCPUListERN4llvm15SmallVectorImplINS2_9StringRefEEE(ptr nonnull readnone align 8 captures(none) %0, ptr noundef nonnull align 8 dereferenceable(16) %1) unnamed_addr #0 align 2 {
  %3 = tail call noundef i64 @_ZNK4llvm15SmallVectorBaseIjE4sizeEv(ptr noundef nonnull align 8 dereferenceable(16) %1) #13
  %4 = add i64 %3, 3
  %5 = tail call noundef i64 @_ZNK4llvm15SmallVectorBaseIjE8capacityEv(ptr noundef nonnull align 8 dereferenceable(16) %1) #13
  %6 = icmp ult i64 %5, %4
  br i1 %6, label %7, label %_ZN4llvm15SmallVectorImplINS_9StringRefEE7reserveEm.exit.i

7:                                                ; preds = %2
  %8 = getelementptr inbounds nuw i8, ptr %1, i64 16
  tail call void @_ZN4llvm15SmallVectorBaseIjE8grow_podEPvmm(ptr noundef nonnull align 8 dereferenceable(16) %1, ptr noundef nonnull %8, i64 noundef %4, i64 noundef 16) #13
  br label %_ZN4llvm15SmallVectorImplINS_9StringRefEE7reserveEm.exit.i

_ZN4llvm15SmallVectorImplINS_9StringRefEE7reserveEm.exit.i: ; preds = %7, %2
  %9 = load ptr, ptr %1, align 8
  %10 = tail call noundef i64 @_ZNK4llvm15SmallVectorBaseIjE4sizeEv(ptr noundef nonnull align 8 dereferenceable(16) %1) #13
  %11 = getelementptr %"class.llvm::StringRef", ptr %9, i64 %10
  tail call void @llvm.memcpy.p0.p0.i64(ptr noundef nonnull align 8 dereferenceable(48) %11, ptr noundef nonnull align 16 dereferenceable(48) @_ZL13ValidCPUNames, i64 48, i1 false)
  %12 = tail call noundef i64 @_ZNK4llvm15SmallVectorBaseIjE4sizeEv(ptr noundef nonnull align 8 dereferenceable(16) %1) #13
  %13 = add i64 %12, 3
  tail call void @_ZN4llvm15SmallVectorBaseIjE8set_sizeEm(ptr noundef nonnull align 8 dereferenceable(16) %1, i64 noundef %13) #13
  ret void
}